target datalayout = "e-m:e-p270:32:32-p271:32:32-p272:64:64-i64:64-i128:128-f80:128-n8:16:32:64-S128"
target triple = "x86_64-pc-linux-gnu"

%"class.i18n::phonenumbers::UnicodeText::Repr" = type <{ ptr, i32, i32, i8, i8, [6 x i8] }>
%"class.i18n::phonenumbers::UnicodeText" = type { %"class.i18n::phonenumbers::UnicodeText::Repr" }

@.str.4 = private unnamed_addr constant [2 x i8] c" \00", align 1
@stderr = external global ptr, align 8
@.str.10 = private unnamed_addr constant [49 x i8] c"Unicode value 0x%x is not valid for interchange\0A\00", align 1
@.str.11 = private unnamed_addr constant [29 x i8] c"Illegal Unicode value: 0x%x\0A\00", align 1

; Function Attrs: inlinehint mustprogress nounwind uwtable
define linkonce_odr dso_local noundef nonnull align 4 dereferenceable(4) ptr @_ZSt3maxIiERKT_S2_S2_(ptr noundef nonnull align 4 dereferenceable(4) %0, ptr noundef nonnull align 4 dereferenceable(4) %1) #2 comdat {
  %3 = alloca ptr, align 8
  %4 = alloca ptr, align 8
  %5 = alloca ptr, align 8
  store ptr %0, ptr %4, align 8, !tbaa !28
  store ptr %1, ptr %5, align 8, !tbaa !28
  %6 = load ptr, ptr %4, align 8, !tbaa !28
  %7 = load i32, ptr %6, align 4, !tbaa !13
  %8 = load ptr, ptr %5, align 8, !tbaa !28
  %9 = load i32, ptr %8, align 4, !tbaa !13
  %10 = icmp slt i32 %7, %9
  br i1 %10, label %11, label %13

11:                                               ; preds = %2
  %12 = load ptr, ptr %5, align 8, !tbaa !28
  store ptr %12, ptr %3, align 8
  br label %15

13:                                               ; preds = %2
  %14 = load ptr, ptr %4, align 8, !tbaa !28
  store ptr %14, ptr %3, align 8
  br label %15

15:                                               ; preds = %13, %11
  %16 = load ptr, ptr %3, align 8
  ret ptr %16
}

; Function Attrs: mustprogress uwtable
define dso_local void @_ZN4i18n12phonenumbers11UnicodeText4Repr7reserveEi(ptr noundef nonnull align 8 dereferenceable(18) %0, i32 noundef %1) #0 align 2 {
  %3 = alloca ptr, align 8
  %4 = alloca i32, align 4
  %5 = alloca i32, align 4
  %6 = alloca ptr, align 8
  store ptr %0, ptr %3, align 8, !tbaa !18
  store i32 %1, ptr %4, align 4, !tbaa !13
  %7 = load ptr, ptr %3, align 8
  %8 = getelementptr inbounds nuw %"class.i18n::phonenumbers::UnicodeText::Repr", ptr %7, i32 0, i32 2
  %9 = load i32, ptr %8, align 4, !tbaa !20
  %10 = load i32, ptr %4, align 4, !tbaa !13
  %11 = icmp sge i32 %9, %10
  br i1 %11, label %12, label %17

12:                                               ; preds = %2
  %13 = getelementptr inbounds nuw %"class.i18n::phonenumbers::UnicodeText::Repr", ptr %7, i32 0, i32 3
  %14 = load i8, ptr %13, align 8, !tbaa !23, !range !24, !noundef !25
  %15 = trunc i8 %14 to i1
  br i1 %15, label %16, label %17

16:                                               ; preds = %12
  br label %54

17:                                               ; preds = %12, %2
  call void @llvm.lifetime.start.p0(i64 4, ptr %5) #15
  %18 = getelementptr inbounds nuw %"class.i18n::phonenumbers::UnicodeText::Repr", ptr %7, i32 0, i32 2
  %19 = load i32, ptr %18, align 4, !tbaa !20
  %20 = mul nsw i32 3, %19
  %21 = sdiv i32 %20, 2
  %22 = add nsw i32 %21, 20
  store i32 %22, ptr %5, align 4, !tbaa !13
  %23 = call noundef nonnull align 4 dereferenceable(4) ptr @_ZSt3maxIiERKT_S2_S2_(ptr noundef nonnull align 4 dereferenceable(4) %4, ptr noundef nonnull align 4 dereferenceable(4) %5)
  %24 = load i32, ptr %23, align 4, !tbaa !13
  %25 = getelementptr inbounds nuw %"class.i18n::phonenumbers::UnicodeText::Repr", ptr %7, i32 0, i32 2
  store i32 %24, ptr %25, align 4, !tbaa !20
  call void @llvm.lifetime.end.p0(i64 4, ptr %5) #15
  call void @llvm.lifetime.start.p0(i64 8, ptr %6) #15
  %26 = getelementptr inbounds nuw %"class.i18n::phonenumbers::UnicodeText::Repr", ptr %7, i32 0, i32 2
  %27 = load i32, ptr %26, align 4, !tbaa !20
  %28 = sext i32 %27 to i64
  %29 = call noalias noundef nonnull ptr @_Znam(i64 noundef %28) #16
  store ptr %29, ptr %6, align 8, !tbaa !12
  %30 = getelementptr inbounds nuw %"class.i18n::phonenumbers::UnicodeText::Repr", ptr %7, i32 0, i32 0
  %31 = load ptr, ptr %30, align 8, !tbaa !26
  %32 = icmp ne ptr %31, null
  br i1 %32, label %33, label %50

33:                                               ; preds = %17
  %34 = load ptr, ptr %6, align 8, !tbaa !12
  %35 = getelementptr inbounds nuw %"class.i18n::phonenumbers::UnicodeText::Repr", ptr %7, i32 0, i32 0
  %36 = load ptr, ptr %35, align 8, !tbaa !26
  %37 = getelementptr inbounds nuw %"class.i18n::phonenumbers::UnicodeText::Repr", ptr %7, i32 0, i32 1
  %38 = load i32, ptr %37, align 8, !tbaa !27
  %39 = sext i32 %38 to i64
  call void @llvm.memcpy.p0.p0.i64(ptr align 1 %34, ptr align 1 %36, i64 %39, i1 false)
  %40 = getelementptr inbounds nuw %"class.i18n::phonenumbers::UnicodeText::Repr", ptr %7, i32 0, i32 3
  %41 = load i8, ptr %40, align 8, !tbaa !23, !range !24, !noundef !25
  %42 = trunc i8 %41 to i1
  br i1 %42, label %43, label %49

43:                                               ; preds = %33
  %44 = getelementptr inbounds nuw %"class.i18n::phonenumbers::UnicodeText::Repr", ptr %7, i32 0, i32 0
  %45 = load ptr, ptr %44, align 8, !tbaa !26
  %46 = icmp eq ptr %45, null
  br i1 %46, label %48, label %47

47:                                               ; preds = %43
  call void @_ZdaPv(ptr noundef %45) #17
  br label %48

48:                                               ; preds = %47, %43
  br label %49

49:                                               ; preds = %48, %33
  br label %50

50:                                               ; preds = %49, %17
  %51 = load ptr, ptr %6, align 8, !tbaa !12
  %52 = getelementptr inbounds nuw %"class.i18n::phonenumbers::UnicodeText::Repr", ptr %7, i32 0, i32 0
  store ptr %51, ptr %52, align 8, !tbaa !26
  %53 = getelementptr inbounds nuw %"class.i18n::phonenumbers::UnicodeText::Repr", ptr %7, i32 0, i32 3
  store i8 1, ptr %53, align 8, !tbaa !23
  call void @llvm.lifetime.end.p0(i64 8, ptr %6) #15
  br label %54

54:                                               ; preds = %50, %16
  ret void
}

; Function Attrs: mustprogress uwtable
define dso_local void @_ZN4i18n12phonenumbers11UnicodeText4Repr6appendEPKci(ptr noundef nonnull align 8 dereferenceable(18) %0, ptr noundef %1, i32 noundef %2) #0 align 2 {
  %4 = alloca ptr, align 8
  %5 = alloca ptr, align 8
  %6 = alloca i32, align 4
  store ptr %0, ptr %4, align 8, !tbaa !18
  store ptr %1, ptr %5, align 8, !tbaa !12
  store i32 %2, ptr %6, align 4, !tbaa !13
  %7 = load ptr, ptr %4, align 8
  %8 = getelementptr inbounds nuw %"class.i18n::phonenumbers::UnicodeText::Repr", ptr %7, i32 0, i32 1
  %9 = load i32, ptr %8, align 8, !tbaa !27
  %10 = load i32, ptr %6, align 4, !tbaa !13
  %11 = add nsw i32 %9, %10
  call void @_ZN4i18n12phonenumbers11UnicodeText4Repr7reserveEi(ptr noundef nonnull align 8 dereferenceable(18) %7, i32 noundef %11)
  %12 = getelementptr inbounds nuw %"class.i18n::phonenumbers::UnicodeText::Repr", ptr %7, i32 0, i32 0
  %13 = load ptr, ptr %12, align 8, !tbaa !26
  %14 = getelementptr inbounds nuw %"class.i18n::phonenumbers::UnicodeText::Repr", ptr %7, i32 0, i32 1
  %15 = load i32, ptr %14, align 8, !tbaa !27
  %16 = sext i32 %15 to i64
  %17 = getelementptr inbounds i8, ptr %13, i64 %16
  %18 = load ptr, ptr %5, align 8, !tbaa !12
  %19 = load i32, ptr %6, align 4, !tbaa !13
  %20 = sext i32 %19 to i64
  call void @llvm.memcpy.p0.p0.i64(ptr align 1 %17, ptr align 1 %18, i64 %20, i1 false)
  %21 = load i32, ptr %6, align 4, !tbaa !13
  %22 = getelementptr inbounds nuw %"class.i18n::phonenumbers::UnicodeText::Repr", ptr %7, i32 0, i32 1
  %23 = load i32, ptr %22, align 8, !tbaa !27
  %24 = add nsw i32 %23, %21
  store i32 %24, ptr %22, align 8, !tbaa !27
  ret void
}

; Function Attrs: inlinehint mustprogress uwtable
define linkonce_odr dso_local noundef zeroext i1 @_ZN4i18n12phonenumbers6UniLib18IsInterchangeValidEPKci(ptr noundef %0, i32 noundef %1) #8 comdat {
  %3 = alloca ptr, align 8
  %4 = alloca i32, align 4
  store ptr %0, ptr %3, align 8, !tbaa !12
  store i32 %1, ptr %4, align 4, !tbaa !13
  %5 = load i32, ptr %4, align 4, !tbaa !13
  %6 = load ptr, ptr %3, align 8, !tbaa !12
  %7 = load i32, ptr %4, align 4, !tbaa !13
  %8 = call noundef i32 @_ZN4i18n12phonenumbers6UniLib20SpanInterchangeValidEPKci(ptr noundef %6, i32 noundef %7)
  %9 = icmp eq i32 %5, %8
  ret i1 %9
}

; Function Attrs: inlinehint mustprogress nounwind uwtable
define linkonce_odr dso_local noundef zeroext i1 @_ZN4i18n12phonenumbers6UniLib16IsValidCodepointEi(i32 noundef %0) #2 comdat {
  %2 = alloca i32, align 4
  store i32 %0, ptr %2, align 4, !tbaa !13
  %3 = load i32, ptr %2, align 4, !tbaa !13
  %4 = icmp ult i32 %3, 55296
  br i1 %4, label %13, label %5

5:                                                ; preds = %1
  %6 = load i32, ptr %2, align 4, !tbaa !13
  %7 = icmp sge i32 %6, 57344
  br i1 %7, label %8, label %11

8:                                                ; preds = %5
  %9 = load i32, ptr %2, align 4, !tbaa !13
  %10 = icmp sle i32 %9, 1114111
  br label %11

11:                                               ; preds = %8, %5
  %12 = phi i1 [ false, %5 ], [ %10, %8 ]
  br label %13

13:                                               ; preds = %11, %1
  %14 = phi i1 [ true, %1 ], [ %12, %11 ]
  ret i1 %14
}

; Function Attrs: mustprogress uwtable
define dso_local void @_ZN4i18n12phonenumbers11UnicodeText9push_backEi(ptr noundef nonnull align 8 dereferenceable(24) %0, i32 noundef %1) #0 align 2 {
  %3 = alloca ptr, align 8
  %4 = alloca i32, align 4
  %5 = alloca [4 x i8], align 1
  %6 = alloca i32, align 4
  %7 = alloca i32, align 4
  store ptr %0, ptr %3, align 8, !tbaa !41
  store i32 %1, ptr %4, align 4, !tbaa !13
  %8 = load ptr, ptr %3, align 8
  %9 = load i32, ptr %4, align 4, !tbaa !13
  %10 = call noundef zeroext i1 @_ZN4i18n12phonenumbers6UniLib16IsValidCodepointEi(i32 noundef %9)
  br i1 %10, label %11, label %28

11:                                               ; preds = %2
  call void @llvm.lifetime.start.p0(i64 4, ptr %5) #15
  call void @llvm.lifetime.start.p0(i64 4, ptr %6) #15
  %12 = load i32, ptr %4, align 4, !tbaa !13
  store i32 %12, ptr %6, align 4, !tbaa !13
  call void @llvm.lifetime.start.p0(i64 4, ptr %7) #15
  %13 = getelementptr inbounds [4 x i8], ptr %5, i64 0, i64 0
  %14 = call i32 @runetochar(ptr noundef %13, ptr noundef %6)
  store i32 %14, ptr %7, align 4, !tbaa !13
  %15 = getelementptr inbounds [4 x i8], ptr %5, i64 0, i64 0
  %16 = load i32, ptr %7, align 4, !tbaa !13
  %17 = call noundef zeroext i1 @_ZN4i18n12phonenumbers6UniLib18IsInterchangeValidEPKci(ptr noundef %15, i32 noundef %16)
  br i1 %17, label %18, label %22

18:                                               ; preds = %11
  %19 = getelementptr inbounds nuw %"class.i18n::phonenumbers::UnicodeText", ptr %8, i32 0, i32 0
  %20 = getelementptr inbounds [4 x i8], ptr %5, i64 0, i64 0
  %21 = load i32, ptr %7, align 4, !tbaa !13
  call void @_ZN4i18n12phonenumbers11UnicodeText4Repr6appendEPKci(ptr noundef nonnull align 8 dereferenceable(18) %19, ptr noundef %20, i32 noundef %21)
  br label %27

22:                                               ; preds = %11
  %23 = load ptr, ptr @stderr, align 8, !tbaa !66
  %24 = load i32, ptr %4, align 4, !tbaa !13
  %25 = call i32 (ptr, ptr, ...) @fprintf(ptr noundef %23, ptr noundef @.str.10, i32 noundef %24) #15
  %26 = getelementptr inbounds nuw %"class.i18n::phonenumbers::UnicodeText", ptr %8, i32 0, i32 0
  call void @_ZN4i18n12phonenumbers11UnicodeText4Repr6appendEPKci(ptr noundef nonnull align 8 dereferenceable(18) %26, ptr noundef @.str.4, i32 noundef 1)
  br label %27

27:                                               ; preds = %22, %18
  call void @llvm.lifetime.end.p0(i64 4, ptr %7) #15
  call void @llvm.lifetime.end.p0(i64 4, ptr %6) #15
  call void @llvm.lifetime.end.p0(i64 4, ptr %5) #15
  br label %33

28:                                               ; preds = %2
  %29 = load ptr, ptr @stderr, align 8, !tbaa !66
  %30 = load i32, ptr %4, align 4, !tbaa !13
  %31 = call i32 (ptr, ptr, ...) @fprintf(ptr noundef %29, ptr noundef @.str.11, i32 noundef %30) #15
  %32 = getelementptr inbounds nuw %"class.i18n::phonenumbers::UnicodeText", ptr %8, i32 0, i32 0
  call void @_ZN4i18n12phonenumbers11UnicodeText4Repr6appendEPKci(ptr noundef nonnull align 8 dereferenceable(18) %32, ptr noundef @.str.4, i32 noundef 1)
  br label %33

33:                                               ; preds = %28, %27
  ret void
}