; Function Attrs: mustprogress uwtable
define dso_local void @_ZN4i18n12phonenumbers11UnicodeText9push_backEi(ptr noundef nonnull align 8 captures(none) dereferenceable(24) %0, i32 noundef %1) local_unnamed_addr #1 align 2 {
  %3 = alloca [4 x i8], align 1
  %4 = alloca i32, align 4
  %5 = icmp ult i32 %1, 55296
  %6 = add i32 %1, -57344
  %7 = icmp ult i32 %6, 1056768
  %8 = or i1 %5, %7
  br i1 %8, label %9, label %79

9:                                                ; preds = %2
  call void @llvm.lifetime.start.p0(i64 4, ptr nonnull %3) #27
  call void @llvm.lifetime.start.p0(i64 4, ptr nonnull %4) #27
  store i32 %1, ptr %4, align 4, !tbaa !79
  %10 = call i32 @runetochar(ptr noundef nonnull %3, ptr noundef nonnull %4)
  %11 = call noundef i32 @_ZN4i18n12phonenumbers6UniLib20SpanInterchangeValidEPKci(ptr noundef nonnull %3, i32 noundef %10)
  %12 = icmp eq i32 %10, %11
  br i1 %12, label %13, label %45

13:                                               ; preds = %9
  %14 = getelementptr inbounds nuw i8, ptr %0, i64 8
  %15 = load i32, ptr %14, align 8, !tbaa !21
  %16 = add nsw i32 %15, %10
  %17 = getelementptr inbounds nuw i8, ptr %0, i64 12
  %18 = load i32, ptr %17, align 4, !tbaa !13
  %.not.i.i = icmp slt i32 %18, %16
  br i1 %.not.i.i, label %23, label %19

19:                                               ; preds = %13
  %20 = getelementptr inbounds nuw i8, ptr %0, i64 16
  %21 = load i8, ptr %20, align 8, !tbaa !17, !range !18, !noundef !19
  %22 = trunc nuw i8 %21 to i1
  br i1 %22, label %._ZN4i18n12phonenumbers11UnicodeText4Repr7reserveEi.exit_crit_edge.i, label %23

._ZN4i18n12phonenumbers11UnicodeText4Repr7reserveEi.exit_crit_edge.i: ; preds = %19
  %.pre.i = load ptr, ptr %0, align 8, !tbaa !20
  br label %_ZN4i18n12phonenumbers11UnicodeText4Repr6appendEPKci.exit

23:                                               ; preds = %19, %13
  %24 = mul nsw i32 %18, 3
  %25 = sdiv i32 %24, 2
  %26 = add nsw i32 %25, 20
  %.sroa.speculated.i.i = call i32 @llvm.smax.i32(i32 %16, i32 %26)
  store i32 %.sroa.speculated.i.i, ptr %17, align 4, !tbaa !13
  %27 = sext i32 %.sroa.speculated.i.i to i64
  %28 = call noalias noundef nonnull ptr @_Znam(i64 noundef %27) #25
  %29 = load ptr, ptr %0, align 8, !tbaa !20
  %.not4.i.i = icmp eq ptr %29, null
  br i1 %.not4.i.i, label %36, label %30

30:                                               ; preds = %23
  %31 = sext i32 %15 to i64
  call void @llvm.memcpy.p0.p0.i64(ptr nonnull align 1 %28, ptr nonnull align 1 %29, i64 %31, i1 false)
  %32 = getelementptr inbounds nuw i8, ptr %0, i64 16
  %33 = load i8, ptr %32, align 8, !tbaa !17, !range !18, !noundef !19
  %34 = trunc nuw i8 %33 to i1
  br i1 %34, label %35, label %36

35:                                               ; preds = %30
  call void @_ZdaPv(ptr noundef nonnull %29) #26
  %.pre4.pre.i = load i32, ptr %14, align 8, !tbaa !21
  br label %36

36:                                               ; preds = %35, %30, %23
  %.pre4.i = phi i32 [ %.pre4.pre.i, %35 ], [ %15, %30 ], [ %15, %23 ]
  store ptr %28, ptr %0, align 8, !tbaa !20
  %37 = getelementptr inbounds nuw i8, ptr %0, i64 16
  store i8 1, ptr %37, align 8, !tbaa !17
  br label %_ZN4i18n12phonenumbers11UnicodeText4Repr6appendEPKci.exit

_ZN4i18n12phonenumbers11UnicodeText4Repr6appendEPKci.exit: ; preds = %._ZN4i18n12phonenumbers11UnicodeText4Repr7reserveEi.exit_crit_edge.i, %36
  %38 = phi i32 [ %15, %._ZN4i18n12phonenumbers11UnicodeText4Repr7reserveEi.exit_crit_edge.i ], [ %.pre4.i, %36 ]
  %39 = phi ptr [ %.pre.i, %._ZN4i18n12phonenumbers11UnicodeText4Repr7reserveEi.exit_crit_edge.i ], [ %28, %36 ]
  %40 = sext i32 %38 to i64
  %41 = getelementptr inbounds i8, ptr %39, i64 %40
  %42 = sext i32 %10 to i64
  call void @llvm.memcpy.p0.p0.i64(ptr align 1 %41, ptr nonnull readonly align 1 %3, i64 %42, i1 false)
  %43 = load i32, ptr %14, align 8, !tbaa !21
  %44 = add nsw i32 %43, %10
  store i32 %44, ptr %14, align 8, !tbaa !21
  br label %78

45:                                               ; preds = %9
  %46 = load ptr, ptr @stderr, align 8, !tbaa !80
  %47 = call i32 (ptr, ptr, ...) @fprintf(ptr noundef %46, ptr noundef nonnull @.str.10, i32 noundef %1) #30
  %48 = getelementptr inbounds nuw i8, ptr %0, i64 8
  %49 = load i32, ptr %48, align 8, !tbaa !21
  %50 = add nsw i32 %49, 1
  %51 = getelementptr inbounds nuw i8, ptr %0, i64 12
  %52 = load i32, ptr %51, align 4, !tbaa !13
  %.not.i.i6.not = icmp sgt i32 %52, %49
  br i1 %.not.i.i6.not, label %53, label %57

53:                                               ; preds = %45
  %54 = getelementptr inbounds nuw i8, ptr %0, i64 16
  %55 = load i8, ptr %54, align 8, !tbaa !17, !range !18, !noundef !19
  %56 = trunc nuw i8 %55 to i1
  br i1 %56, label %._ZN4i18n12phonenumbers11UnicodeText4Repr7reserveEi.exit_crit_edge.i11, label %57

._ZN4i18n12phonenumbers11UnicodeText4Repr7reserveEi.exit_crit_edge.i11: ; preds = %53
  %.pre.i12 = load ptr, ptr %0, align 8, !tbaa !20
  br label %_ZN4i18n12phonenumbers11UnicodeText4Repr6appendEPKci.exit13

57:                                               ; preds = %53, %45
  %58 = mul nsw i32 %52, 3
  %59 = sdiv i32 %58, 2
  %60 = add nsw i32 %59, 20
  %.sroa.speculated.i.i7 = call i32 @llvm.smax.i32(i32 %50, i32 %60)
  store i32 %.sroa.speculated.i.i7, ptr %51, align 4, !tbaa !13
  %61 = sext i32 %.sroa.speculated.i.i7 to i64
  %62 = call noalias noundef nonnull ptr @_Znam(i64 noundef %61) #25
  %63 = load ptr, ptr %0, align 8, !tbaa !20
  %.not4.i.i8 = icmp eq ptr %63, null
  br i1 %.not4.i.i8, label %70, label %64

64:                                               ; preds = %57
  %65 = sext i32 %49 to i64
  call void @llvm.memcpy.p0.p0.i64(ptr nonnull align 1 %62, ptr nonnull align 1 %63, i64 %65, i1 false)
  %66 = getelementptr inbounds nuw i8, ptr %0, i64 16
  %67 = load i8, ptr %66, align 8, !tbaa !17, !range !18, !noundef !19
  %68 = trunc nuw i8 %67 to i1
  br i1 %68, label %69, label %70

69:                                               ; preds = %64
  call void @_ZdaPv(ptr noundef nonnull %63) #26
  %.pre4.pre.i10 = load i32, ptr %48, align 8, !tbaa !21
  br label %70

70:                                               ; preds = %69, %64, %57
  %.pre4.i9 = phi i32 [ %.pre4.pre.i10, %69 ], [ %49, %64 ], [ %49, %57 ]
  store ptr %62, ptr %0, align 8, !tbaa !20
  %71 = getelementptr inbounds nuw i8, ptr %0, i64 16
  store i8 1, ptr %71, align 8, !tbaa !17
  br label %_ZN4i18n12phonenumbers11UnicodeText4Repr6appendEPKci.exit13

_ZN4i18n12phonenumbers11UnicodeText4Repr6appendEPKci.exit13: ; preds = %._ZN4i18n12phonenumbers11UnicodeText4Repr7reserveEi.exit_crit_edge.i11, %70
  %72 = phi i32 [ %49, %._ZN4i18n12phonenumbers11UnicodeText4Repr7reserveEi.exit_crit_edge.i11 ], [ %.pre4.i9, %70 ]
  %73 = phi ptr [ %.pre.i12, %._ZN4i18n12phonenumbers11UnicodeText4Repr7reserveEi.exit_crit_edge.i11 ], [ %62, %70 ]
  %74 = sext i32 %72 to i64
  %75 = getelementptr inbounds i8, ptr %73, i64 %74
  store i8 32, ptr %75, align 1
  %76 = load i32, ptr %48, align 8, !tbaa !21
  %77 = add nsw i32 %76, 1
  store i32 %77, ptr %48, align 8, !tbaa !21
  br label %78

78:                                               ; preds = %_ZN4i18n12phonenumbers11UnicodeText4Repr6appendEPKci.exit13, %_ZN4i18n12phonenumbers11UnicodeText4Repr6appendEPKci.exit
  call void @llvm.lifetime.end.p0(i64 4, ptr nonnull %4) #27
  call void @llvm.lifetime.end.p0(i64 4, ptr nonnull %3) #27
  br label %112

79:                                               ; preds = %2
  %80 = load ptr, ptr @stderr, align 8, !tbaa !80
  %81 = tail call i32 (ptr, ptr, ...) @fprintf(ptr noundef %80, ptr noundef nonnull @.str.11, i32 noundef %1) #30
  %82 = getelementptr inbounds nuw i8, ptr %0, i64 8
  %83 = load i32, ptr %82, align 8, !tbaa !21
  %84 = add nsw i32 %83, 1
  %85 = getelementptr inbounds nuw i8, ptr %0, i64 12
  %86 = load i32, ptr %85, align 4, !tbaa !13
  %.not.i.i14.not = icmp sgt i32 %86, %83
  br i1 %.not.i.i14.not, label %87, label %91

87:                                               ; preds = %79
  %88 = getelementptr inbounds nuw i8, ptr %0, i64 16
  %89 = load i8, ptr %88, align 8, !tbaa !17, !range !18, !noundef !19
  %90 = trunc nuw i8 %89 to i1
  br i1 %90, label %._ZN4i18n12phonenumbers11UnicodeText4Repr7reserveEi.exit_crit_edge.i19, label %91

._ZN4i18n12phonenumbers11UnicodeText4Repr7reserveEi.exit_crit_edge.i19: ; preds = %87
  %.pre.i20 = load ptr, ptr %0, align 8, !tbaa !20
  br label %_ZN4i18n12phonenumbers11UnicodeText4Repr6appendEPKci.exit21

91:                                               ; preds = %87, %79
  %92 = mul nsw i32 %86, 3
  %93 = sdiv i32 %92, 2
  %94 = add nsw i32 %93, 20
  %.sroa.speculated.i.i15 = tail call i32 @llvm.smax.i32(i32 %84, i32 %94)
  store i32 %.sroa.speculated.i.i15, ptr %85, align 4, !tbaa !13
  %95 = sext i32 %.sroa.speculated.i.i15 to i64
  %96 = tail call noalias noundef nonnull ptr @_Znam(i64 noundef %95) #25
  %97 = load ptr, ptr %0, align 8, !tbaa !20
  %.not4.i.i16 = icmp eq ptr %97, null
  br i1 %.not4.i.i16, label %104, label %98

98:                                               ; preds = %91
  %99 = sext i32 %83 to i64
  tail call void @llvm.memcpy.p0.p0.i64(ptr nonnull align 1 %96, ptr nonnull align 1 %97, i64 %99, i1 false)
  %100 = getelementptr inbounds nuw i8, ptr %0, i64 16
  %101 = load i8, ptr %100, align 8, !tbaa !17, !range !18, !noundef !19
  %102 = trunc nuw i8 %101 to i1
  br i1 %102, label %103, label %104

103:                                              ; preds = %98
  tail call void @_ZdaPv(ptr noundef nonnull %97) #26
  %.pre4.pre.i18 = load i32, ptr %82, align 8, !tbaa !21
  br label %104

104:                                              ; preds = %103, %98, %91
  %.pre4.i17 = phi i32 [ %.pre4.pre.i18, %103 ], [ %83, %98 ], [ %83, %91 ]
  store ptr %96, ptr %0, align 8, !tbaa !20
  %105 = getelementptr inbounds nuw i8, ptr %0, i64 16
  store i8 1, ptr %105, align 8, !tbaa !17
  br label %_ZN4i18n12phonenumbers11UnicodeText4Repr6appendEPKci.exit21

_ZN4i18n12phonenumbers11UnicodeText4Repr6appendEPKci.exit21: ; preds = %._ZN4i18n12phonenumbers11UnicodeText4Repr7reserveEi.exit_crit_edge.i19, %104
  %106 = phi i32 [ %83, %._ZN4i18n12phonenumbers11UnicodeText4Repr7reserveEi.exit_crit_edge.i19 ], [ %.pre4.i17, %104 ]
  %107 = phi ptr [ %.pre.i20, %._ZN4i18n12phonenumbers11UnicodeText4Repr7reserveEi.exit_crit_edge.i19 ], [ %96, %104 ]
  %108 = sext i32 %106 to i64
  %109 = getelementptr inbounds i8, ptr %107, i64 %108
  store i8 32, ptr %109, align 1
  %110 = load i32, ptr %82, align 8, !tbaa !21
  %111 = add nsw i32 %110, 1
  store i32 %111, ptr %82, align 8, !tbaa !21
  br label %112

112:                                              ; preds = %_ZN4i18n12phonenumbers11UnicodeText4Repr6appendEPKci.exit21, %78
  ret void
}